; Function Attrs: mustprogress nounwind uwtable
define hidden void @_ZN10WeakHandleC2EP10OopStorage6Handle(ptr nocapture noundef nonnull writeonly align 8 dereferenceable(8) %0, ptr noundef %1, ptr readonly %2) unnamed_addr #0 align 2 {
  %4 = icmp eq ptr %2, null
  br i1 %4, label %_ZNK6HandleclEv.exit, label %5

5:                                                ; preds = %3
  %6 = load ptr, ptr %2, align 8
  br label %_ZNK6HandleclEv.exit

_ZNK6HandleclEv.exit:                             ; preds = %3, %5
  %7 = phi ptr [ %6, %5 ], [ null, %3 ]
  %8 = tail call noundef ptr @_ZN10OopStorage8allocateEv(ptr noundef nonnull align 8 dereferenceable(126) %1) #5
  store ptr %8, ptr %0, align 8
  %9 = icmp eq ptr %8, null
  br i1 %9, label %10, label %_ZN10WeakHandleC2EP10OopStorageP7oopDesc.exit

10:                                               ; preds = %_ZNK6HandleclEv.exit
  %11 = tail call noundef ptr @_ZNK10OopStorage4nameEv(ptr noundef nonnull align 8 dereferenceable(126) %1) #5
  tail call void (ptr, i32, i64, i32, ptr, ...) @_Z23report_vm_out_of_memoryPKcim11VMErrorTypeS0_z(ptr noundef nonnull @.str, i32 noundef 43, i64 noundef 8, i32 noundef -536870911, ptr noundef nonnull @.str.4, ptr noundef %11) #6
  unreachable

_ZN10WeakHandleC2EP10OopStorageP7oopDesc.exit:    ; preds = %_ZNK6HandleclEv.exit
  %12 = load ptr, ptr @_ZN14AccessInternal15RuntimeDispatchILm598084EP7oopDescLNS_11BarrierTypeE0EE11_store_funcE, align 8
  tail call void %12(ptr noundef nonnull %8, ptr noundef %7) #5
  ret void
}